; Function Attrs: nounwind uwtable
define i64 @test_canonicalize_path(ptr noundef readonly captures(none) %0) local_unnamed_addr #1 {
  %2 = getelementptr inbounds nuw i8, ptr %0, i64 32
  %3 = load i64, ptr %2, align 8
  %4 = inttoptr i64 %3 to ptr
  %5 = tail call ptr @pg_detoast_datum_packed(ptr noundef %4) #18
  %6 = tail call ptr @text_to_cstring(ptr noundef %5) #18
  tail call void @canonicalize_path(ptr noundef %6) #18
  %7 = tail call ptr @cstring_to_text(ptr noundef %6) #18
  %8 = ptrtoint ptr %7 to i64
  ret i64 %8
}